; Function Attrs: inlinehint mustprogress nounwind uwtable
define internal fastcc void @_ZN2cv12_GLOBAL__N_18GSafePtrI7_GErrorED2Ev(ptr noundef nonnull align 8 dereferenceable(8) %0) unnamed_addr #5 align 2 personality ptr @__gxx_personality_v0 {
  %2 = load ptr, ptr %0, align 8, !tbaa !451
  %.not.i = icmp eq ptr %2, null
  br i1 %.not.i, label %_ZN2cv12_GLOBAL__N_18GSafePtrI7_GErrorE7releaseEv.exit, label %3

3:                                                ; preds = %1
  invoke void @g_clear_error(ptr noundef nonnull align 8 dereferenceable(8) %0)
          to label %_ZN2cv12_GLOBAL__N_18GSafePtrI7_GErrorE7releaseEv.exit unwind label %4

4:                                                ; preds = %3
  %5 = landingpad { ptr, i32 }
          catch ptr null
  %6 = extractvalue { ptr, i32 } %5, 0
  tail call void @__clang_call_terminate(ptr %6) #32
  unreachable

_ZN2cv12_GLOBAL__N_18GSafePtrI7_GErrorE7releaseEv.exit: ; preds = %1, %3
  ret void
}